; Function Attrs: nounwind uwtable
define internal fastcc noundef ptr @zend_compile_rope_add_ex(ptr noundef returned writeonly %0, ptr nocapture noundef %1, i32 noundef %2, ptr nocapture noundef %3) unnamed_addr #0 {
  %5 = icmp eq i32 %2, 0
  br i1 %5, label %6, label %9

6:                                                ; preds = %4
  store i8 2, ptr %1, align 8
  %7 = getelementptr inbounds i8, ptr %1, i64 8
  store i32 -1, ptr %7, align 8
  %8 = getelementptr inbounds i8, ptr %0, i64 28
  store i8 54, ptr %8, align 4
  br label %52

9:                                                ; preds = %4
  %10 = getelementptr inbounds i8, ptr %0, i64 28
  store i8 55, ptr %10, align 4
  %11 = load i8, ptr %1, align 8
  %12 = getelementptr inbounds i8, ptr %0, i64 29
  store i8 %11, ptr %12, align 1
  %13 = icmp eq i8 %11, 1
  br i1 %13, label %14, label %48

14:                                               ; preds = %9
  %15 = getelementptr inbounds i8, ptr %1, i64 8
  %16 = load ptr, ptr getelementptr inbounds (%struct._zend_compiler_globals, ptr @compiler_globals, i64 0, i32 4), align 8
  %17 = getelementptr inbounds i8, ptr %16, i64 168
  %18 = load i32, ptr %17, align 8
  %19 = add nsw i32 %18, 1
  store i32 %19, ptr %17, align 8
  %20 = load i32, ptr getelementptr inbounds (%struct._zend_compiler_globals, ptr @compiler_globals, i64 0, i32 22, i32 2), align 8
  %.not.i = icmp slt i32 %18, %20
  br i1 %.not.i, label %._crit_edge13.i, label %.lr.ph.i

._crit_edge13.i:                                  ; preds = %14
  %.phi.trans.insert.i = getelementptr i8, ptr %16, i64 176
  %.val.pre.i = load ptr, ptr %.phi.trans.insert.i, align 8
  br label %29

.lr.ph.i:                                         ; preds = %14, %.lr.ph.i
  %21 = phi i32 [ %22, %.lr.ph.i ], [ %20, %14 ]
  %22 = add nsw i32 %21, 16
  %.not9.i = icmp slt i32 %18, %22
  br i1 %.not9.i, label %23, label %.lr.ph.i

23:                                               ; preds = %.lr.ph.i
  store i32 %22, ptr getelementptr inbounds (%struct._zend_compiler_globals, ptr @compiler_globals, i64 0, i32 22, i32 2), align 8
  %24 = getelementptr inbounds i8, ptr %16, i64 176
  %25 = load ptr, ptr %24, align 8
  %26 = sext i32 %22 to i64
  %27 = shl nsw i64 %26, 4
  %28 = tail call ptr @_erealloc(ptr noundef %25, i64 noundef %27) #34
  store ptr %28, ptr %24, align 8
  br label %29

29:                                               ; preds = %23, %._crit_edge13.i
  %.val.i = phi ptr [ %.val.pre.i, %._crit_edge13.i ], [ %28, %23 ]
  %30 = getelementptr inbounds i8, ptr %1, i64 16
  %31 = load i8, ptr %30, align 8
  %32 = icmp eq i8 %31, 6
  %.pre.i.i = load ptr, ptr %15, align 8
  br i1 %32, label %33, label %zend_add_literal.exit

33:                                               ; preds = %29
  %34 = load ptr, ptr @zend_new_interned_string, align 8
  %35 = tail call ptr %34(ptr noundef %.pre.i.i) #30
  store ptr %35, ptr %15, align 8
  %36 = getelementptr inbounds i8, ptr %35, i64 4
  %37 = load i32, ptr %36, align 4
  %38 = and i32 %37, 64
  %.not.i.i.i = icmp eq i32 %38, 0
  br i1 %.not.i.i.i, label %zend_add_literal.exit, label %39

39:                                               ; preds = %33
  %40 = getelementptr inbounds i8, ptr %1, i64 17
  store i8 0, ptr %40, align 1
  br label %zend_add_literal.exit

zend_add_literal.exit:                            ; preds = %29, %33, %39
  %41 = phi ptr [ %35, %39 ], [ %35, %33 ], [ %.pre.i.i, %29 ]
  %42 = sext i32 %18 to i64
  %43 = getelementptr inbounds %struct._zval_struct, ptr %.val.i, i64 %42
  %44 = load i32, ptr %30, align 8
  store ptr %41, ptr %43, align 8
  %45 = getelementptr inbounds i8, ptr %43, i64 8
  store i32 %44, ptr %45, align 8
  %46 = getelementptr inbounds i8, ptr %43, i64 12
  store i32 0, ptr %46, align 4
  %47 = getelementptr inbounds i8, ptr %0, i64 8
  store i32 %18, ptr %47, align 8
  br label %52

48:                                               ; preds = %9
  %49 = getelementptr inbounds i8, ptr %0, i64 8
  %50 = getelementptr inbounds i8, ptr %1, i64 8
  %51 = load i32, ptr %50, align 8
  store i32 %51, ptr %49, align 8
  br label %52

52:                                               ; preds = %6, %zend_add_literal.exit, %48
  %53 = load i8, ptr %3, align 8
  %54 = getelementptr inbounds i8, ptr %0, i64 30
  store i8 %53, ptr %54, align 2
  %55 = icmp eq i8 %53, 1
  br i1 %55, label %56, label %90

56:                                               ; preds = %52
  %57 = getelementptr inbounds i8, ptr %3, i64 8
  %58 = load ptr, ptr getelementptr inbounds (%struct._zend_compiler_globals, ptr @compiler_globals, i64 0, i32 4), align 8
  %59 = getelementptr inbounds i8, ptr %58, i64 168
  %60 = load i32, ptr %59, align 8
  %61 = add nsw i32 %60, 1
  store i32 %61, ptr %59, align 8
  %62 = load i32, ptr getelementptr inbounds (%struct._zend_compiler_globals, ptr @compiler_globals, i64 0, i32 22, i32 2), align 8
  %.not.i28 = icmp slt i32 %60, %62
  br i1 %.not.i28, label %._crit_edge13.i34, label %.lr.ph.i29

._crit_edge13.i34:                                ; preds = %56
  %.phi.trans.insert.i35 = getelementptr i8, ptr %58, i64 176
  %.val.pre.i36 = load ptr, ptr %.phi.trans.insert.i35, align 8
  br label %71

.lr.ph.i29:                                       ; preds = %56, %.lr.ph.i29
  %63 = phi i32 [ %64, %.lr.ph.i29 ], [ %62, %56 ]
  %64 = add nsw i32 %63, 16
  %.not9.i30 = icmp slt i32 %60, %64
  br i1 %.not9.i30, label %65, label %.lr.ph.i29

65:                                               ; preds = %.lr.ph.i29
  store i32 %64, ptr getelementptr inbounds (%struct._zend_compiler_globals, ptr @compiler_globals, i64 0, i32 22, i32 2), align 8
  %66 = getelementptr inbounds i8, ptr %58, i64 176
  %67 = load ptr, ptr %66, align 8
  %68 = sext i32 %64 to i64
  %69 = shl nsw i64 %68, 4
  %70 = tail call ptr @_erealloc(ptr noundef %67, i64 noundef %69) #34
  store ptr %70, ptr %66, align 8
  br label %71

71:                                               ; preds = %65, %._crit_edge13.i34
  %.val.i31 = phi ptr [ %.val.pre.i36, %._crit_edge13.i34 ], [ %70, %65 ]
  %72 = getelementptr inbounds i8, ptr %3, i64 16
  %73 = load i8, ptr %72, align 8
  %74 = icmp eq i8 %73, 6
  %.pre.i.i32 = load ptr, ptr %57, align 8
  br i1 %74, label %75, label %zend_add_literal.exit37

75:                                               ; preds = %71
  %76 = load ptr, ptr @zend_new_interned_string, align 8
  %77 = tail call ptr %76(ptr noundef %.pre.i.i32) #30
  store ptr %77, ptr %57, align 8
  %78 = getelementptr inbounds i8, ptr %77, i64 4
  %79 = load i32, ptr %78, align 4
  %80 = and i32 %79, 64
  %.not.i.i.i33 = icmp eq i32 %80, 0
  br i1 %.not.i.i.i33, label %zend_add_literal.exit37, label %81

81:                                               ; preds = %75
  %82 = getelementptr inbounds i8, ptr %3, i64 17
  store i8 0, ptr %82, align 1
  br label %zend_add_literal.exit37

zend_add_literal.exit37:                          ; preds = %71, %75, %81
  %83 = phi ptr [ %77, %81 ], [ %77, %75 ], [ %.pre.i.i32, %71 ]
  %84 = sext i32 %60 to i64
  %85 = getelementptr inbounds %struct._zval_struct, ptr %.val.i31, i64 %84
  %86 = load i32, ptr %72, align 8
  store ptr %83, ptr %85, align 8
  %87 = getelementptr inbounds i8, ptr %85, i64 8
  store i32 %86, ptr %87, align 8
  %88 = getelementptr inbounds i8, ptr %85, i64 12
  store i32 0, ptr %88, align 4
  %89 = getelementptr inbounds i8, ptr %0, i64 12
  store i32 %60, ptr %89, align 4
  br label %94

90:                                               ; preds = %52
  %91 = getelementptr inbounds i8, ptr %0, i64 12
  %92 = getelementptr inbounds i8, ptr %3, i64 8
  %93 = load i32, ptr %92, align 8
  store i32 %93, ptr %91, align 4
  br label %94

94:                                               ; preds = %90, %zend_add_literal.exit37
  %95 = load i8, ptr %1, align 8
  %96 = getelementptr inbounds i8, ptr %0, i64 31
  store i8 %95, ptr %96, align 1
  %97 = icmp eq i8 %95, 1
  br i1 %97, label %98, label %132

98:                                               ; preds = %94
  %99 = getelementptr inbounds i8, ptr %1, i64 8
  %100 = load ptr, ptr getelementptr inbounds (%struct._zend_compiler_globals, ptr @compiler_globals, i64 0, i32 4), align 8
  %101 = getelementptr inbounds i8, ptr %100, i64 168
  %102 = load i32, ptr %101, align 8
  %103 = add nsw i32 %102, 1
  store i32 %103, ptr %101, align 8
  %104 = load i32, ptr getelementptr inbounds (%struct._zend_compiler_globals, ptr @compiler_globals, i64 0, i32 22, i32 2), align 8
  %.not.i38 = icmp slt i32 %102, %104
  br i1 %.not.i38, label %._crit_edge13.i44, label %.lr.ph.i39

._crit_edge13.i44:                                ; preds = %98
  %.phi.trans.insert.i45 = getelementptr i8, ptr %100, i64 176
  %.val.pre.i46 = load ptr, ptr %.phi.trans.insert.i45, align 8
  br label %113

.lr.ph.i39:                                       ; preds = %98, %.lr.ph.i39
  %105 = phi i32 [ %106, %.lr.ph.i39 ], [ %104, %98 ]
  %106 = add nsw i32 %105, 16
  %.not9.i40 = icmp slt i32 %102, %106
  br i1 %.not9.i40, label %107, label %.lr.ph.i39

107:                                              ; preds = %.lr.ph.i39
  store i32 %106, ptr getelementptr inbounds (%struct._zend_compiler_globals, ptr @compiler_globals, i64 0, i32 22, i32 2), align 8
  %108 = getelementptr inbounds i8, ptr %100, i64 176
  %109 = load ptr, ptr %108, align 8
  %110 = sext i32 %106 to i64
  %111 = shl nsw i64 %110, 4
  %112 = tail call ptr @_erealloc(ptr noundef %109, i64 noundef %111) #34
  store ptr %112, ptr %108, align 8
  br label %113

113:                                              ; preds = %107, %._crit_edge13.i44
  %.val.i41 = phi ptr [ %.val.pre.i46, %._crit_edge13.i44 ], [ %112, %107 ]
  %114 = getelementptr inbounds i8, ptr %1, i64 16
  %115 = load i8, ptr %114, align 8
  %116 = icmp eq i8 %115, 6
  %.pre.i.i42 = load ptr, ptr %99, align 8
  br i1 %116, label %117, label %zend_add_literal.exit47

117:                                              ; preds = %113
  %118 = load ptr, ptr @zend_new_interned_string, align 8
  %119 = tail call ptr %118(ptr noundef %.pre.i.i42) #30
  store ptr %119, ptr %99, align 8
  %120 = getelementptr inbounds i8, ptr %119, i64 4
  %121 = load i32, ptr %120, align 4
  %122 = and i32 %121, 64
  %.not.i.i.i43 = icmp eq i32 %122, 0
  br i1 %.not.i.i.i43, label %zend_add_literal.exit47, label %123

123:                                              ; preds = %117
  %124 = getelementptr inbounds i8, ptr %1, i64 17
  store i8 0, ptr %124, align 1
  br label %zend_add_literal.exit47

zend_add_literal.exit47:                          ; preds = %113, %117, %123
  %125 = phi ptr [ %119, %123 ], [ %119, %117 ], [ %.pre.i.i42, %113 ]
  %126 = sext i32 %102 to i64
  %127 = getelementptr inbounds %struct._zval_struct, ptr %.val.i41, i64 %126
  %128 = load i32, ptr %114, align 8
  store ptr %125, ptr %127, align 8
  %129 = getelementptr inbounds i8, ptr %127, i64 8
  store i32 %128, ptr %129, align 8
  %130 = getelementptr inbounds i8, ptr %127, i64 12
  store i32 0, ptr %130, align 4
  %131 = getelementptr inbounds i8, ptr %0, i64 16
  store i32 %102, ptr %131, align 8
  br label %136

132:                                              ; preds = %94
  %133 = getelementptr inbounds i8, ptr %0, i64 16
  %134 = getelementptr inbounds i8, ptr %1, i64 8
  %135 = load i32, ptr %134, align 8
  store i32 %135, ptr %133, align 8
  br label %136

136:                                              ; preds = %zend_add_literal.exit47, %132
  %137 = getelementptr inbounds i8, ptr %0, i64 20
  store i32 %2, ptr %137, align 4
  ret ptr %0
}